target datalayout = "e-m:e-p270:32:32-p271:32:32-p272:64:64-i64:64-i128:128-f80:128-n8:16:32:64-S128"
target triple = "x86_64-pc-linux-gnu"

; Function Attrs: nounwind uwtable
define internal i32 @ecd_item_sign(ptr noundef %0, ptr noundef %1, i32 noundef %2) #0 {
  %4 = alloca ptr, align 8
  %5 = alloca ptr, align 8
  %6 = alloca i32, align 4
  store ptr %0, ptr %4, align 8, !tbaa !12
  store ptr %1, ptr %5, align 8, !tbaa !12
  store i32 %2, ptr %6, align 4, !tbaa !10
  %7 = load ptr, ptr %4, align 8, !tbaa !12
  %8 = load i32, ptr %6, align 4, !tbaa !10
  %9 = call ptr @OBJ_nid2obj(i32 noundef %8)
  %10 = call i32 @X509_ALGOR_set0(ptr noundef %7, ptr noundef %9, i32 noundef -1, ptr noundef null)
  %11 = load ptr, ptr %5, align 8, !tbaa !12
  %12 = icmp ne ptr %11, null
  br i1 %12, label %13, label %18

13:                                               ; preds = %3
  %14 = load ptr, ptr %5, align 8, !tbaa !12
  %15 = load i32, ptr %6, align 4, !tbaa !10
  %16 = call ptr @OBJ_nid2obj(i32 noundef %15)
  %17 = call i32 @X509_ALGOR_set0(ptr noundef %14, ptr noundef %16, i32 noundef -1, ptr noundef null)
  br label %18

18:                                               ; preds = %13, %3
  ret i32 3
}

; Function Attrs: nounwind uwtable
define internal i32 @ecd_item_sign448(ptr noundef %0, ptr noundef %1, ptr noundef %2, ptr noundef %3, ptr noundef %4, ptr noundef %5) #0 {
  %7 = alloca ptr, align 8
  %8 = alloca ptr, align 8
  %9 = alloca ptr, align 8
  %10 = alloca ptr, align 8
  %11 = alloca ptr, align 8
  %12 = alloca ptr, align 8
  store ptr %0, ptr %7, align 8, !tbaa !60
  store ptr %1, ptr %8, align 8, !tbaa !62
  store ptr %2, ptr %9, align 8, !tbaa !47
  store ptr %3, ptr %10, align 8, !tbaa !12
  store ptr %4, ptr %11, align 8, !tbaa !12
  store ptr %5, ptr %12, align 8, !tbaa !64
  %13 = load ptr, ptr %10, align 8, !tbaa !12
  %14 = load ptr, ptr %11, align 8, !tbaa !12
  %15 = call i32 @ecd_item_sign(ptr noundef %13, ptr noundef %14, i32 noundef 1088)
  ret i32 %15
}